; Function Attrs: nounwind uwtable
define dso_local ptr @get_object_class_descr(i32 noundef %0) local_unnamed_addr #0 {
  %2 = load ptr, ptr @get_object_property_data.prop_last, align 8
  %.not.i = icmp eq ptr %2, null
  br i1 %.not.i, label %.preheader, label %3

3:                                                ; preds = %1
  %4 = getelementptr inbounds nuw i8, ptr %2, i64 8
  %5 = load i32, ptr %4, align 8
  %6 = icmp eq i32 %5, %0
  br i1 %6, label %get_object_property_data.exit, label %.preheader

.preheader:                                       ; preds = %3, %1
  br label %8

7:                                                ; preds = %8
  %indvars.iv.next.i = add nuw nsw i64 %indvars.iv.i, 1
  %exitcond.not.i = icmp eq i64 %indvars.iv.next.i, 37
  br i1 %exitcond.not.i, label %14, label %8, !llvm.loop !10

8:                                                ; preds = %.preheader, %7
  %indvars.iv.i = phi i64 [ %indvars.iv.next.i, %7 ], [ 0, %.preheader ]
  %9 = getelementptr inbounds nuw [37 x %struct.ObjectPropertyType], ptr @ObjectProperty, i64 0, i64 %indvars.iv.i
  %10 = getelementptr inbounds nuw i8, ptr %9, i64 8
  %11 = load i32, ptr %10, align 8
  %12 = icmp eq i32 %11, %0
  br i1 %12, label %13, label %7

13:                                               ; preds = %8
  store ptr %9, ptr @get_object_property_data.prop_last, align 8
  br label %get_object_property_data.exit

14:                                               ; preds = %7
  %15 = tail call zeroext i1 @errstart_cold(i32 noundef 21, ptr noundef null) #12
  tail call void @llvm.assume(i1 %15)
  %16 = tail call i32 (ptr, ...) @errmsg_internal(ptr noundef nonnull @.str.229, i32 noundef %0) #11
  tail call void @errfinish(ptr noundef nonnull @.str.1, i32 noundef 2773, ptr noundef nonnull @__func__.get_object_property_data) #11
  unreachable

get_object_property_data.exit:                    ; preds = %3, %13
  %.08.i = phi ptr [ %9, %13 ], [ %2, %3 ]
  %17 = load ptr, ptr %.08.i, align 8
  ret ptr %17
}